target datalayout = "e-m:e-p270:32:32-p271:32:32-p272:64:64-i64:64-i128:128-f80:128-n8:16:32:64-S128"
target triple = "x86_64-pc-linux-gnu"

%struct.cli_ctx_tag = type { ptr, ptr, ptr, ptr, ptr, ptr, ptr, i64, ptr, i32, i32, ptr, i32, i32, ptr, [16 x i8], ptr, ptr, ptr, ptr, ptr, ptr, %struct.timeval, i8, i8 }
%struct.timeval = type { i64, i64 }
%struct.cl_fmap = type { ptr, ptr, ptr, i64, i64, i64, i64, i8, i8, i8, i64, i64, i64, i64, ptr, ptr, ptr, ptr, ptr, ptr, ptr, i8, [16 x i8], i8, [20 x i8], i8, [32 x i8], ptr, ptr }

@.str.2 = private unnamed_addr constant [29 x i8] c"in cli_check_riff_exploit()\0A\00", align 1
@.str.3 = private unnamed_addr constant [5 x i8] c"RIFF\00", align 1
@.str.4 = private unnamed_addr constant [5 x i8] c"RIFX\00", align 1
@.str.5 = private unnamed_addr constant [5 x i8] c"ACON\00", align 1
@.str.18 = private unnamed_addr constant [43 x i8] c"riff_read_chunk: recursion level exceeded\0A\00", align 1
@.str.19 = private unnamed_addr constant [5 x i8] c"anih\00", align 1
@.str.20 = private unnamed_addr constant [5 x i8] c"LIST\00", align 1
@.str.21 = private unnamed_addr constant [5 x i8] c"PROP\00", align 1
@.str.22 = private unnamed_addr constant [5 x i8] c"FORM\00", align 1
@.str.23 = private unnamed_addr constant [5 x i8] c"CAT \00", align 1
@.str.24 = private unnamed_addr constant [40 x i8] c"riff_read_chunk: read list type failed\0A\00", align 1

; Function Attrs: nounwind uwtable
define internal i64 @fmap_ptr2off(ptr noundef %0, ptr noundef %1) #0 {
  %3 = alloca ptr, align 8
  %4 = alloca ptr, align 8
  store ptr %0, ptr %3, align 8
  store ptr %1, ptr %4, align 8
  %5 = load ptr, ptr %4, align 8
  %6 = load ptr, ptr %3, align 8
  %7 = getelementptr inbounds %struct.cl_fmap, ptr %6, i32 0, i32 2
  %8 = load ptr, ptr %7, align 8
  %9 = ptrtoint ptr %5 to i64
  %10 = ptrtoint ptr %8 to i64
  %11 = sub i64 %9, %10
  %12 = load ptr, ptr %3, align 8
  %13 = getelementptr inbounds %struct.cl_fmap, ptr %12, i32 0, i32 11
  %14 = load i64, ptr %13, align 8
  %15 = sub i64 %11, %14
  ret i64 %15
}

; Function Attrs: nounwind uwtable
define internal ptr @fmap_need_ptr_once(ptr noundef %0, ptr noundef %1, i64 noundef %2) #0 {
  %4 = alloca ptr, align 8
  %5 = alloca ptr, align 8
  %6 = alloca i64, align 8
  store ptr %0, ptr %4, align 8
  store ptr %1, ptr %5, align 8
  store i64 %2, ptr %6, align 8
  %7 = load ptr, ptr %4, align 8
  %8 = getelementptr inbounds %struct.cl_fmap, ptr %7, i32 0, i32 15
  %9 = load ptr, ptr %8, align 8
  %10 = load ptr, ptr %4, align 8
  %11 = load ptr, ptr %4, align 8
  %12 = load ptr, ptr %5, align 8
  %13 = call i64 @fmap_ptr2off(ptr noundef %11, ptr noundef %12)
  %14 = load i64, ptr %6, align 8
  %15 = call ptr %9(ptr noundef %10, i64 noundef %13, i64 noundef %14, i32 noundef 0)
  ret ptr %15
}

; Function Attrs: nounwind uwtable
define internal i32 @riff_endian_convert_32(i32 noundef %0, i32 noundef %1) #0 {
  %3 = alloca i32, align 4
  %4 = alloca i32, align 4
  %5 = alloca i32, align 4
  store i32 %0, ptr %4, align 4
  store i32 %1, ptr %5, align 4
  %6 = load i32, ptr %5, align 4
  %7 = icmp ne i32 %6, 0
  br i1 %7, label %8, label %24

8:                                                ; preds = %2
  %9 = load i32, ptr %4, align 4
  %10 = and i32 %9, 255
  %11 = shl i32 %10, 24
  %12 = load i32, ptr %4, align 4
  %13 = and i32 %12, 65280
  %14 = shl i32 %13, 8
  %15 = or i32 %11, %14
  %16 = load i32, ptr %4, align 4
  %17 = and i32 %16, 16711680
  %18 = lshr i32 %17, 8
  %19 = or i32 %15, %18
  %20 = load i32, ptr %4, align 4
  %21 = and i32 %20, -16777216
  %22 = lshr i32 %21, 24
  %23 = or i32 %19, %22
  store i32 %23, ptr %3, align 4
  br label %26

24:                                               ; preds = %2
  %25 = load i32, ptr %4, align 4
  store i32 %25, ptr %3, align 4
  br label %26

26:                                               ; preds = %24, %8
  %27 = load i32, ptr %3, align 4
  ret i32 %27
}

; Function Attrs: nounwind uwtable
define internal i32 @riff_read_chunk(ptr noundef %0, ptr noundef %1, i32 noundef %2, i32 noundef %3) #0 {
  %5 = alloca i32, align 4
  %6 = alloca ptr, align 8
  %7 = alloca ptr, align 8
  %8 = alloca i32, align 4
  %9 = alloca i32, align 4
  %10 = alloca i32, align 4
  %11 = alloca ptr, align 8
  %12 = alloca ptr, align 8
  %13 = alloca i32, align 4
  %14 = alloca i64, align 8
  store ptr %0, ptr %6, align 8
  store ptr %1, ptr %7, align 8
  store i32 %2, ptr %8, align 4
  store i32 %3, ptr %9, align 4
  %15 = load ptr, ptr %7, align 8
  %16 = load i64, ptr %15, align 8
  store i64 %16, ptr %14, align 8
  %17 = load i32, ptr %9, align 4
  %18 = icmp sgt i32 %17, 1000
  br i1 %18, label %19, label %20

19:                                               ; preds = %4
  call void (ptr, ...) @cli_dbgmsg(ptr noundef @.str.18)
  store i32 0, ptr %5, align 4
  br label %102

20:                                               ; preds = %4
  %21 = load ptr, ptr %6, align 8
  %22 = load i64, ptr %14, align 8
  %23 = call ptr @fmap_need_off_once(ptr noundef %21, i64 noundef %22, i64 noundef 8)
  store ptr %23, ptr %12, align 8
  %24 = icmp ne ptr %23, null
  br i1 %24, label %26, label %25

25:                                               ; preds = %20
  store i32 0, ptr %5, align 4
  br label %102

26:                                               ; preds = %20
  %27 = load i64, ptr %14, align 8
  %28 = add nsw i64 %27, 8
  store i64 %28, ptr %14, align 8
  %29 = load ptr, ptr %12, align 8
  store ptr %29, ptr %11, align 8
  %30 = load ptr, ptr %11, align 8
  %31 = getelementptr inbounds i8, ptr %30, i64 4
  call void @llvm.memcpy.p0.p0.i64(ptr align 4 %10, ptr align 1 %31, i64 4, i1 false)
  %32 = load i32, ptr %10, align 4
  %33 = load i32, ptr %8, align 4
  %34 = call i32 @riff_endian_convert_32(i32 noundef %32, i32 noundef %33)
  store i32 %34, ptr %13, align 4
  %35 = load ptr, ptr %12, align 8
  %36 = call i32 @memcmp(ptr noundef %35, ptr noundef @.str.19, i64 noundef 4) #6
  %37 = icmp ne i32 %36, 0
  br i1 %37, label %42, label %38

38:                                               ; preds = %26
  %39 = load i32, ptr %13, align 4
  %40 = icmp ne i32 %39, 36
  br i1 %40, label %41, label %42

41:                                               ; preds = %38
  store i32 2, ptr %5, align 4
  br label %102

42:                                               ; preds = %38, %26
  %43 = load ptr, ptr %12, align 8
  %44 = call i32 @memcmp(ptr noundef %43, ptr noundef @.str.3, i64 noundef 4) #6
  %45 = icmp eq i32 %44, 0
  br i1 %45, label %46, label %47

46:                                               ; preds = %42
  store i32 0, ptr %5, align 4
  br label %102

47:                                               ; preds = %42
  %48 = load ptr, ptr %12, align 8
  %49 = call i32 @memcmp(ptr noundef %48, ptr noundef @.str.4, i64 noundef 4) #6
  %50 = icmp eq i32 %49, 0
  br i1 %50, label %51, label %52

51:                                               ; preds = %47
  store i32 0, ptr %5, align 4
  br label %102

52:                                               ; preds = %47
  br label %53

53:                                               ; preds = %52
  %54 = load ptr, ptr %12, align 8
  %55 = call i32 @memcmp(ptr noundef %54, ptr noundef @.str.20, i64 noundef 4) #6
  %56 = icmp eq i32 %55, 0
  br i1 %56, label %69, label %57

57:                                               ; preds = %53
  %58 = load ptr, ptr %12, align 8
  %59 = call i32 @memcmp(ptr noundef %58, ptr noundef @.str.21, i64 noundef 4) #6
  %60 = icmp eq i32 %59, 0
  br i1 %60, label %69, label %61

61:                                               ; preds = %57
  %62 = load ptr, ptr %12, align 8
  %63 = call i32 @memcmp(ptr noundef %62, ptr noundef @.str.22, i64 noundef 4) #6
  %64 = icmp eq i32 %63, 0
  br i1 %64, label %69, label %65

65:                                               ; preds = %61
  %66 = load ptr, ptr %12, align 8
  %67 = call i32 @memcmp(ptr noundef %66, ptr noundef @.str.23, i64 noundef 4) #6
  %68 = icmp eq i32 %67, 0
  br i1 %68, label %69, label %86

69:                                               ; preds = %65, %61, %57, %53
  %70 = load ptr, ptr %6, align 8
  %71 = load ptr, ptr %12, align 8
  %72 = getelementptr inbounds i32, ptr %71, i64 2
  %73 = call ptr @fmap_need_ptr_once(ptr noundef %70, ptr noundef %72, i64 noundef 4)
  %74 = icmp ne ptr %73, null
  br i1 %74, label %76, label %75

75:                                               ; preds = %69
  call void (ptr, ...) @cli_dbgmsg(ptr noundef @.str.24)
  store i32 0, ptr %5, align 4
  br label %102

76:                                               ; preds = %69
  %77 = load i64, ptr %14, align 8
  %78 = add nsw i64 %77, 4
  %79 = load ptr, ptr %7, align 8
  store i64 %78, ptr %79, align 8
  %80 = load ptr, ptr %6, align 8
  %81 = load ptr, ptr %7, align 8
  %82 = load i32, ptr %8, align 4
  %83 = load i32, ptr %9, align 4
  %84 = add nsw i32 %83, 1
  store i32 %84, ptr %9, align 4
  %85 = call i32 @riff_read_chunk(ptr noundef %80, ptr noundef %81, i32 noundef %82, i32 noundef %84)
  store i32 %85, ptr %5, align 4
  br label %102

86:                                               ; preds = %65
  %87 = load i64, ptr %14, align 8
  %88 = load i32, ptr %13, align 4
  %89 = zext i32 %88 to i64
  %90 = add nsw i64 %87, %89
  %91 = load i32, ptr %13, align 4
  %92 = and i32 %91, 1
  %93 = zext i32 %92 to i64
  %94 = add nsw i64 %90, %93
  %95 = load ptr, ptr %7, align 8
  store i64 %94, ptr %95, align 8
  %96 = load ptr, ptr %7, align 8
  %97 = load i64, ptr %96, align 8
  %98 = load i64, ptr %14, align 8
  %99 = icmp slt i64 %97, %98
  br i1 %99, label %100, label %101

100:                                              ; preds = %86
  store i32 0, ptr %5, align 4
  br label %102

101:                                              ; preds = %86
  store i32 1, ptr %5, align 4
  br label %102

102:                                              ; preds = %101, %100, %76, %75, %51, %46, %41, %25, %19
  %103 = load i32, ptr %5, align 4
  ret i32 %103
}

; Function Attrs: nounwind uwtable
define internal ptr @fmap_need_off_once(ptr noundef %0, i64 noundef %1, i64 noundef %2) #0 {
  %4 = alloca ptr, align 8
  %5 = alloca i64, align 8
  %6 = alloca i64, align 8
  store ptr %0, ptr %4, align 8
  store i64 %1, ptr %5, align 8
  store i64 %2, ptr %6, align 8
  %7 = load ptr, ptr %4, align 8
  %8 = getelementptr inbounds %struct.cl_fmap, ptr %7, i32 0, i32 15
  %9 = load ptr, ptr %8, align 8
  %10 = load ptr, ptr %4, align 8
  %11 = load i64, ptr %5, align 8
  %12 = load i64, ptr %6, align 8
  %13 = call ptr %9(ptr noundef %10, i64 noundef %11, i64 noundef %12, i32 noundef 0)
  ret ptr %13
}

; Function Attrs: nounwind uwtable
define i32 @cli_check_riff_exploit(ptr noundef %0) #0 {
  %2 = alloca i32, align 4
  %3 = alloca ptr, align 8
  %4 = alloca ptr, align 8
  %5 = alloca i32, align 4
  %6 = alloca i32, align 4
  %7 = alloca i64, align 8
  %8 = alloca ptr, align 8
  store ptr %0, ptr %3, align 8
  %9 = load ptr, ptr %3, align 8
  %10 = getelementptr inbounds %struct.cli_ctx_tag, ptr %9, i32 0, i32 14
  %11 = load ptr, ptr %10, align 8
  store ptr %11, ptr %8, align 8
  call void (ptr, ...) @cli_dbgmsg(ptr noundef @.str.2)
  %12 = load ptr, ptr %8, align 8
  %13 = call ptr @fmap_need_off_once(ptr noundef %12, i64 noundef 0, i64 noundef 12)
  store ptr %13, ptr %4, align 8
  %14 = icmp ne ptr %13, null
  br i1 %14, label %16, label %15

15:                                               ; preds = %1
  store i32 0, ptr %2, align 4
  br label %44

16:                                               ; preds = %1
  %17 = load ptr, ptr %4, align 8
  %18 = call i32 @memcmp(ptr noundef %17, ptr noundef @.str.3, i64 noundef 4) #6
  %19 = icmp eq i32 %18, 0
  br i1 %19, label %20, label %21

20:                                               ; preds = %16
  store i32 0, ptr %5, align 4
  br label %28

21:                                               ; preds = %16
  %22 = load ptr, ptr %4, align 8
  %23 = call i32 @memcmp(ptr noundef %22, ptr noundef @.str.4, i64 noundef 4) #6
  %24 = icmp eq i32 %23, 0
  br i1 %24, label %25, label %26

25:                                               ; preds = %21
  store i32 1, ptr %5, align 4
  br label %27

26:                                               ; preds = %21
  store i32 0, ptr %2, align 4
  br label %44

27:                                               ; preds = %25
  br label %28

28:                                               ; preds = %27, %20
  %29 = load ptr, ptr %4, align 8
  %30 = getelementptr inbounds i32, ptr %29, i64 2
  %31 = call i32 @memcmp(ptr noundef %30, ptr noundef @.str.5, i64 noundef 4) #6
  %32 = icmp ne i32 %31, 0
  br i1 %32, label %33, label %34

33:                                               ; preds = %28
  store i32 0, ptr %2, align 4
  br label %44

34:                                               ; preds = %28
  store i64 12, ptr %7, align 8
  br label %35

35:                                               ; preds = %39, %34
  %36 = load ptr, ptr %8, align 8
  %37 = load i32, ptr %5, align 4
  %38 = call i32 @riff_read_chunk(ptr noundef %36, ptr noundef %7, i32 noundef %37, i32 noundef 1)
  store i32 %38, ptr %6, align 4
  br label %39

39:                                               ; preds = %35
  %40 = load i32, ptr %6, align 4
  %41 = icmp eq i32 %40, 1
  br i1 %41, label %35, label %42

42:                                               ; preds = %39
  %43 = load i32, ptr %6, align 4
  store i32 %43, ptr %2, align 4
  br label %44

44:                                               ; preds = %42, %33, %26, %15
  %45 = load i32, ptr %2, align 4
  ret i32 %45
}