; Function Attrs: nounwind uwtable
define noundef i32 @cli_check_riff_exploit(ptr nocapture noundef readonly %0) local_unnamed_addr #0 {
  %2 = getelementptr inbounds i8, ptr %0, i64 96
  %3 = load ptr, ptr %2, align 8
  tail call void (ptr, ...) @cli_dbgmsg(ptr noundef nonnull @.str.2) #7
  %4 = getelementptr inbounds i8, ptr %3, i64 104
  %5 = load ptr, ptr %4, align 8
  %6 = tail call ptr %5(ptr noundef %3, i64 noundef 0, i64 noundef 12, i32 noundef 0) #7
  %.not = icmp eq ptr %6, null
  br i1 %.not, label %riff_read_chunk.exit.thread, label %7

7:                                                ; preds = %1
  %bcmp = tail call i32 @bcmp(ptr noundef nonnull dereferenceable(4) %6, ptr noundef nonnull dereferenceable(4) @.str.3, i64 4)
  %8 = icmp eq i32 %bcmp, 0
  br i1 %8, label %11, label %9

9:                                                ; preds = %7
  %bcmp12 = tail call i32 @bcmp(ptr noundef nonnull dereferenceable(4) %6, ptr noundef nonnull dereferenceable(4) @.str.4, i64 4)
  %10 = icmp eq i32 %bcmp12, 0
  br i1 %10, label %11, label %riff_read_chunk.exit.thread

11:                                               ; preds = %9, %7
  %12 = getelementptr inbounds i8, ptr %6, i64 8
  %bcmp13 = tail call i32 @bcmp(ptr noundef nonnull dereferenceable(4) %12, ptr noundef nonnull dereferenceable(4) @.str.5, i64 4)
  %.not14 = icmp eq i32 %bcmp13, 0
  br i1 %.not14, label %.preheader, label %riff_read_chunk.exit.thread

.preheader:                                       ; preds = %11
  %13 = getelementptr i8, ptr %3, i64 16
  %14 = getelementptr i8, ptr %3, i64 72
  br label %15

15:                                               ; preds = %.backedge, %.preheader
  %16 = phi i64 [ 12, %.preheader ], [ %.be, %.backedge ]
  %.tr4348.i = phi i32 [ 1, %.preheader ], [ %.tr4348.i.be, %.backedge ]
  %17 = load ptr, ptr %4, align 8
  %18 = tail call ptr %17(ptr noundef nonnull %3, i64 noundef %16, i64 noundef 8, i32 noundef 0) #7
  %.not.i = icmp eq ptr %18, null
  br i1 %.not.i, label %riff_read_chunk.exit.thread, label %19

19:                                               ; preds = %15
  %20 = getelementptr inbounds i8, ptr %18, i64 4
  %.0.copyload.i = load i32, ptr %20, align 1
  %21 = tail call i32 @llvm.bswap.i32(i32 %.0.copyload.i)
  %.0.i.i = select i1 %8, i32 %.0.copyload.i, i32 %21
  %bcmp.i = tail call i32 @bcmp(ptr noundef nonnull dereferenceable(4) %18, ptr noundef nonnull dereferenceable(4) @.str.19, i64 4)
  %22 = icmp eq i32 %bcmp.i, 0
  %23 = icmp ne i32 %.0.i.i, 36
  %or.cond.i = select i1 %22, i1 %23, i1 false
  br i1 %or.cond.i, label %riff_read_chunk.exit.thread, label %24

24:                                               ; preds = %19
  %bcmp34.i = tail call i32 @bcmp(ptr noundef nonnull dereferenceable(4) %18, ptr noundef nonnull dereferenceable(4) @.str.3, i64 4)
  %25 = icmp eq i32 %bcmp34.i, 0
  br i1 %25, label %riff_read_chunk.exit.thread, label %26

26:                                               ; preds = %24
  %bcmp35.i = tail call i32 @bcmp(ptr noundef nonnull dereferenceable(4) %18, ptr noundef nonnull dereferenceable(4) @.str.4, i64 4)
  %27 = icmp eq i32 %bcmp35.i, 0
  br i1 %27, label %riff_read_chunk.exit.thread, label %28

28:                                               ; preds = %26
  %bcmp36.i = tail call i32 @bcmp(ptr noundef nonnull dereferenceable(4) %18, ptr noundef nonnull dereferenceable(4) @.str.20, i64 4)
  %29 = icmp eq i32 %bcmp36.i, 0
  br i1 %29, label %36, label %30

30:                                               ; preds = %28
  %bcmp37.i = tail call i32 @bcmp(ptr noundef nonnull dereferenceable(4) %18, ptr noundef nonnull dereferenceable(4) @.str.21, i64 4)
  %31 = icmp eq i32 %bcmp37.i, 0
  br i1 %31, label %36, label %32

32:                                               ; preds = %30
  %bcmp38.i = tail call i32 @bcmp(ptr noundef nonnull dereferenceable(4) %18, ptr noundef nonnull dereferenceable(4) @.str.22, i64 4)
  %33 = icmp eq i32 %bcmp38.i, 0
  br i1 %33, label %36, label %34

34:                                               ; preds = %32
  %bcmp39.i = tail call i32 @bcmp(ptr noundef nonnull dereferenceable(4) %18, ptr noundef nonnull dereferenceable(4) @.str.23, i64 4)
  %35 = icmp eq i32 %bcmp39.i, 0
  br i1 %35, label %36, label %riff_read_chunk.exit

36:                                               ; preds = %34, %32, %30, %28
  %37 = getelementptr inbounds i8, ptr %18, i64 8
  %38 = load ptr, ptr %4, align 8
  %.val.i.i = load ptr, ptr %13, align 8
  %.val4.i.i = load i64, ptr %14, align 8
  %39 = ptrtoint ptr %37 to i64
  %40 = ptrtoint ptr %.val.i.i to i64
  %41 = add i64 %.val4.i.i, %40
  %42 = sub i64 %39, %41
  %43 = tail call ptr %38(ptr noundef nonnull %3, i64 noundef %42, i64 noundef 4, i32 noundef 0) #7
  %.not40.i = icmp eq ptr %43, null
  br i1 %.not40.i, label %riff_read_chunk.exit.thread.sink.split, label %tailrecurse.i

tailrecurse.i:                                    ; preds = %36
  %44 = add nsw i64 %16, 12
  %45 = add nuw nsw i32 %.tr4348.i, 1
  %exitcond.i = icmp eq i32 %45, 1001
  br i1 %exitcond.i, label %riff_read_chunk.exit.thread.sink.split, label %.backedge

.backedge:                                        ; preds = %tailrecurse.i, %riff_read_chunk.exit
  %.be = phi i64 [ %44, %tailrecurse.i ], [ %51, %riff_read_chunk.exit ]
  %.tr4348.i.be = phi i32 [ %45, %tailrecurse.i ], [ 1, %riff_read_chunk.exit ]
  br label %15

riff_read_chunk.exit:                             ; preds = %34
  %46 = add nsw i64 %16, 8
  %47 = zext i32 %.0.i.i to i64
  %48 = add nsw i64 %46, %47
  %49 = and i32 %.0.i.i, 1
  %50 = zext nneg i32 %49 to i64
  %51 = add nsw i64 %48, %50
  %.not18 = icmp slt i64 %51, %46
  br i1 %.not18, label %riff_read_chunk.exit.thread, label %.backedge

riff_read_chunk.exit.thread.sink.split:           ; preds = %36, %tailrecurse.i
  %.str.24.sink = phi ptr [ @.str.18, %tailrecurse.i ], [ @.str.24, %36 ]
  tail call void (ptr, ...) @cli_dbgmsg(ptr noundef nonnull %.str.24.sink) #7
  br label %riff_read_chunk.exit.thread

riff_read_chunk.exit.thread:                      ; preds = %riff_read_chunk.exit, %15, %19, %24, %26, %riff_read_chunk.exit.thread.sink.split, %11, %9, %1
  %.0 = phi i32 [ 0, %1 ], [ 0, %9 ], [ 0, %11 ], [ 0, %riff_read_chunk.exit.thread.sink.split ], [ 0, %riff_read_chunk.exit ], [ 0, %26 ], [ 0, %24 ], [ 2, %19 ], [ 0, %15 ]
  ret i32 %.0
}